target datalayout = "e-m:e-p270:32:32-p271:32:32-p272:64:64-i64:64-i128:128-f80:128-n8:16:32:64-S128"
target triple = "x86_64-pc-linux-gnu"

%struct.portalhashent = type { [64 x i8], ptr }
%struct.PortalData = type { ptr, ptr, ptr, ptr, ptr, i32, i32, i32, ptr, i32, %struct.QueryCompletion, ptr, ptr, ptr, ptr, i32, i32, i32, i8, i8, ptr, ptr, ptr, ptr, ptr, ptr, ptr, i8, i8, i64, i64, i8 }
%struct.QueryCompletion = type { i32, i64 }
%struct.HASH_SEQ_STATUS = type { ptr, i32, ptr, i8, i32 }

@PortalHashTable = internal global ptr null, align 8
@.str.3 = private unnamed_addr constant [12 x i8] c"portalmem.c\00", align 1
@.str.19 = private unnamed_addr constant [33 x i8] c"skipping cleanup for portal \22%s\22\00", align 1
@__func__.AtCleanup_Portals = private unnamed_addr constant [18 x i8] c"AtCleanup_Portals\00", align 1

; Function Attrs: nounwind uwtable
define dso_local void @AtCleanup_Portals() #0 {
  %1 = alloca %struct.HASH_SEQ_STATUS, align 8
  %2 = alloca ptr, align 8
  %3 = alloca ptr, align 8
  %4 = alloca i32, align 4
  call void @llvm.lifetime.start.p0(i64 32, ptr %1) #6
  call void @llvm.lifetime.start.p0(i64 8, ptr %2) #6
  %5 = load ptr, ptr @PortalHashTable, align 8
  call void @hash_seq_init(ptr noundef %1, ptr noundef %5)
  br label %6

6:                                                ; preds = %62, %60, %0
  %7 = call ptr @hash_seq_search(ptr noundef %1)
  store ptr %7, ptr %2, align 8
  %8 = icmp ne ptr %7, null
  br i1 %8, label %9, label %63

9:                                                ; preds = %6
  call void @llvm.lifetime.start.p0(i64 8, ptr %3) #6
  %10 = load ptr, ptr %2, align 8
  %11 = getelementptr inbounds nuw %struct.portalhashent, ptr %10, i32 0, i32 1
  %12 = load ptr, ptr %11, align 8
  store ptr %12, ptr %3, align 8
  %13 = load ptr, ptr %3, align 8
  %14 = getelementptr inbounds nuw %struct.PortalData, ptr %13, i32 0, i32 17
  %15 = load i32, ptr %14, align 8
  %16 = icmp eq i32 %15, 3
  br i1 %16, label %17, label %18

17:                                               ; preds = %9
  store i32 2, ptr %4, align 4
  br label %60, !llvm.loop !11

18:                                               ; preds = %9
  %19 = load ptr, ptr %3, align 8
  %20 = getelementptr inbounds nuw %struct.PortalData, ptr %19, i32 0, i32 5
  %21 = load i32, ptr %20, align 8
  %22 = icmp eq i32 %21, 0
  br i1 %22, label %28, label %23

23:                                               ; preds = %18
  %24 = load ptr, ptr %3, align 8
  %25 = getelementptr inbounds nuw %struct.PortalData, ptr %24, i32 0, i32 19
  %26 = load i8, ptr %25, align 1, !range !4, !noundef !5
  %27 = trunc i8 %26 to i1
  br i1 %27, label %28, label %29

28:                                               ; preds = %23, %18
  store i32 2, ptr %4, align 4
  br label %60, !llvm.loop !11

29:                                               ; preds = %23
  %30 = load ptr, ptr %3, align 8
  %31 = getelementptr inbounds nuw %struct.PortalData, ptr %30, i32 0, i32 18
  %32 = load i8, ptr %31, align 4, !range !4, !noundef !5
  %33 = trunc i8 %32 to i1
  br i1 %33, label %34, label %37

34:                                               ; preds = %29
  %35 = load ptr, ptr %3, align 8
  %36 = getelementptr inbounds nuw %struct.PortalData, ptr %35, i32 0, i32 18
  store i8 0, ptr %36, align 4
  br label %37

37:                                               ; preds = %34, %29
  %38 = load ptr, ptr %3, align 8
  %39 = getelementptr inbounds nuw %struct.PortalData, ptr %38, i32 0, i32 4
  %40 = load ptr, ptr %39, align 8
  %41 = icmp ne ptr %40, null
  br i1 %41, label %42, label %58

42:                                               ; preds = %37
  br label %43

43:                                               ; preds = %42
  br i1 false, label %44, label %46

44:                                               ; preds = %43
  %45 = call zeroext i1 @errstart_cold(i32 noundef 19, ptr noundef null) #7
  br i1 %45, label %48, label %53

46:                                               ; preds = %43
  %47 = call zeroext i1 @errstart(i32 noundef 19, ptr noundef null)
  br i1 %47, label %48, label %53

48:                                               ; preds = %46, %44
  %49 = load ptr, ptr %3, align 8
  %50 = getelementptr inbounds nuw %struct.PortalData, ptr %49, i32 0, i32 0
  %51 = load ptr, ptr %50, align 8
  %52 = call i32 (ptr, ...) @errmsg_internal(ptr noundef @.str.19, ptr noundef %51)
  call void @errfinish(ptr noundef @.str.3, i32 noundef 901, ptr noundef @__func__.AtCleanup_Portals)
  br label %53

53:                                               ; preds = %48, %46, %44
  br label %54

54:                                               ; preds = %53
  br label %55

55:                                               ; preds = %54
  %56 = load ptr, ptr %3, align 8
  %57 = getelementptr inbounds nuw %struct.PortalData, ptr %56, i32 0, i32 4
  store ptr null, ptr %57, align 8
  br label %58

58:                                               ; preds = %55, %37
  %59 = load ptr, ptr %3, align 8
  call void @PortalDrop(ptr noundef %59, i1 noundef zeroext false)
  store i32 0, ptr %4, align 4
  br label %60

60:                                               ; preds = %58, %28, %17
  call void @llvm.lifetime.end.p0(i64 8, ptr %3) #6
  %61 = load i32, ptr %4, align 4
  switch i32 %61, label %64 [
    i32 0, label %62
    i32 2, label %6
  ]

62:                                               ; preds = %60
  br label %6, !llvm.loop !11

63:                                               ; preds = %6
  call void @llvm.lifetime.end.p0(i64 8, ptr %2) #6
  call void @llvm.lifetime.end.p0(i64 32, ptr %1) #6
  ret void

64:                                               ; preds = %60
  unreachable
}