; Function Attrs: nounwind uwtable
define dso_local void @AtCleanup_Portals() local_unnamed_addr #0 {
  %1 = alloca %struct.HASH_SEQ_STATUS, align 8
  call void @llvm.lifetime.start.p0(i64 32, ptr nonnull %1) #8
  %2 = load ptr, ptr @PortalHashTable, align 8
  call void @hash_seq_init(ptr noundef nonnull %1, ptr noundef %2) #8
  %3 = call ptr @hash_seq_search(ptr noundef nonnull %1) #8
  %.not11 = icmp eq ptr %3, null
  br i1 %.not11, label %._crit_edge, label %.lr.ph

.lr.ph:                                           ; preds = %0, %33
  %4 = phi ptr [ %34, %33 ], [ %3, %0 ]
  %5 = getelementptr inbounds nuw i8, ptr %4, i64 64
  %6 = load ptr, ptr %5, align 8
  %7 = getelementptr inbounds nuw i8, ptr %6, i64 128
  %8 = load i32, ptr %7, align 8
  %9 = icmp eq i32 %8, 3
  br i1 %9, label %33, label %10, !llvm.loop !10

10:                                               ; preds = %.lr.ph
  %11 = getelementptr inbounds nuw i8, ptr %6, i64 40
  %12 = load i32, ptr %11, align 8
  %13 = icmp eq i32 %12, 0
  br i1 %13, label %33, label %14, !llvm.loop !10

14:                                               ; preds = %10
  %15 = getelementptr inbounds nuw i8, ptr %6, i64 133
  %16 = load i8, ptr %15, align 1, !range !4, !noundef !5
  %17 = trunc nuw i8 %16 to i1
  br i1 %17, label %33, label %18, !llvm.loop !10

18:                                               ; preds = %14
  %19 = getelementptr inbounds nuw i8, ptr %6, i64 132
  %20 = load i8, ptr %19, align 4, !range !4, !noundef !5
  %21 = trunc nuw i8 %20 to i1
  br i1 %21, label %22, label %23

22:                                               ; preds = %18
  store i8 0, ptr %19, align 4
  br label %23

23:                                               ; preds = %22, %18
  %24 = getelementptr inbounds nuw i8, ptr %6, i64 32
  %25 = load ptr, ptr %24, align 8
  %.not10 = icmp eq ptr %25, null
  br i1 %.not10, label %32, label %26

26:                                               ; preds = %23
  %27 = call zeroext i1 @errstart(i32 noundef 19, ptr noundef null) #8
  br i1 %27, label %28, label %31

28:                                               ; preds = %26
  %29 = load ptr, ptr %6, align 8
  %30 = call i32 (ptr, ...) @errmsg_internal(ptr noundef nonnull @.str.19, ptr noundef %29) #8
  call void @errfinish(ptr noundef nonnull @.str.3, i32 noundef 901, ptr noundef nonnull @__func__.AtCleanup_Portals) #8
  br label %31

31:                                               ; preds = %28, %26
  store ptr null, ptr %24, align 8
  br label %32

32:                                               ; preds = %31, %23
  call void @PortalDrop(ptr noundef nonnull %6, i1 noundef zeroext false)
  br label %33

33:                                               ; preds = %10, %14, %.lr.ph, %32
  %34 = call ptr @hash_seq_search(ptr noundef nonnull %1) #8
  %.not = icmp eq ptr %34, null
  br i1 %.not, label %._crit_edge, label %.lr.ph

._crit_edge:                                      ; preds = %33, %0
  call void @llvm.lifetime.end.p0(i64 32, ptr nonnull %1) #8
  ret void
}